target datalayout = "e-m:e-p270:32:32-p271:32:32-p272:64:64-i64:64-i128:128-f80:128-n8:16:32:64-S128"
target triple = "x86_64-pc-linux-gnu"

%struct.AfterTriggersData = type { i32, ptr, %struct.AfterTriggerEventList, ptr, ptr, i32, i32, ptr, i32 }
%struct.AfterTriggerEventList = type { ptr, ptr, ptr }
%struct.ForEachState = type { ptr, i32 }
%struct.List = type { i32, i32, i32, ptr, [0 x %union.ListCell] }
%union.ListCell = type { ptr }
%struct.ItemPointerData = type { %struct.BlockIdData, i16 }
%struct.BlockIdData = type { i16, i16 }
%struct.AfterTriggersTableData = type { i32, i32, i8, i8, i8, %struct.AfterTriggerEventList, ptr, ptr, ptr, ptr, ptr }
%struct.AfterTriggerEventData = type { i32, %struct.ItemPointerData, %struct.ItemPointerData, i32, i32 }
%struct.AfterTriggerSharedData = type { i32, i32, i32, i32, i32, ptr, ptr }
%struct.AfterTriggersQueryData = type { %struct.AfterTriggerEventList, ptr, ptr }
%struct.AfterTriggerEventChunk = type { ptr, ptr, ptr, ptr }

@CurrentMemoryContext = external global ptr, align 8
@afterTriggers = internal global %struct.AfterTriggersData zeroinitializer, align 8
@CurTransactionContext = external global ptr, align 8

; Function Attrs: inlinehint nounwind uwtable
define internal ptr @MemoryContextSwitchTo(ptr noundef %0) #7 {
  %2 = alloca ptr, align 8
  %3 = alloca ptr, align 8
  store ptr %0, ptr %2, align 8
  call void @llvm.lifetime.start.p0(i64 8, ptr %3) #12
  %4 = load ptr, ptr @CurrentMemoryContext, align 8
  store ptr %4, ptr %3, align 8
  %5 = load ptr, ptr %2, align 8
  store ptr %5, ptr @CurrentMemoryContext, align 8
  %6 = load ptr, ptr %3, align 8
  call void @llvm.lifetime.end.p0(i64 8, ptr %3) #12
  ret ptr %6
}

; Function Attrs: nounwind uwtable
define internal ptr @GetAfterTriggersTableData(i32 noundef %0, i32 noundef %1) #0 {
  %3 = alloca ptr, align 8
  %4 = alloca i32, align 4
  %5 = alloca i32, align 4
  %6 = alloca ptr, align 8
  %7 = alloca ptr, align 8
  %8 = alloca ptr, align 8
  %9 = alloca ptr, align 8
  %10 = alloca %struct.ForEachState, align 8
  %11 = alloca i32, align 4
  store i32 %0, ptr %4, align 4
  store i32 %1, ptr %5, align 4
  call void @llvm.lifetime.start.p0(i64 8, ptr %6) #12
  call void @llvm.lifetime.start.p0(i64 8, ptr %7) #12
  call void @llvm.lifetime.start.p0(i64 8, ptr %8) #12
  call void @llvm.lifetime.start.p0(i64 8, ptr %9) #12
  %12 = load ptr, ptr getelementptr inbounds nuw (%struct.AfterTriggersData, ptr @afterTriggers, i32 0, i32 4), align 8
  %13 = load i32, ptr getelementptr inbounds nuw (%struct.AfterTriggersData, ptr @afterTriggers, i32 0, i32 5), align 8
  %14 = sext i32 %13 to i64
  %15 = getelementptr inbounds %struct.AfterTriggersQueryData, ptr %12, i64 %14
  store ptr %15, ptr %7, align 8
  call void @llvm.lifetime.start.p0(i64 16, ptr %10) #12
  %16 = getelementptr inbounds nuw %struct.ForEachState, ptr %10, i32 0, i32 0
  %17 = load ptr, ptr %7, align 8
  %18 = getelementptr inbounds nuw %struct.AfterTriggersQueryData, ptr %17, i32 0, i32 2
  %19 = load ptr, ptr %18, align 8
  store ptr %19, ptr %16, align 8
  %20 = getelementptr inbounds nuw %struct.ForEachState, ptr %10, i32 0, i32 1
  store i32 0, ptr %20, align 8
  %21 = getelementptr i8, ptr %10, i64 12
  call void @llvm.memset.p0.i64(ptr align 4 %21, i8 0, i64 4, i1 false)
  br label %22

22:                                               ; preds = %70, %2
  %23 = getelementptr inbounds nuw %struct.ForEachState, ptr %10, i32 0, i32 0
  %24 = load ptr, ptr %23, align 8
  %25 = icmp ne ptr %24, null
  br i1 %25, label %26, label %43

26:                                               ; preds = %22
  %27 = getelementptr inbounds nuw %struct.ForEachState, ptr %10, i32 0, i32 1
  %28 = load i32, ptr %27, align 8
  %29 = getelementptr inbounds nuw %struct.ForEachState, ptr %10, i32 0, i32 0
  %30 = load ptr, ptr %29, align 8
  %31 = getelementptr inbounds nuw %struct.List, ptr %30, i32 0, i32 1
  %32 = load i32, ptr %31, align 4
  %33 = icmp slt i32 %28, %32
  br i1 %33, label %34, label %43

34:                                               ; preds = %26
  %35 = getelementptr inbounds nuw %struct.ForEachState, ptr %10, i32 0, i32 0
  %36 = load ptr, ptr %35, align 8
  %37 = getelementptr inbounds nuw %struct.List, ptr %36, i32 0, i32 3
  %38 = load ptr, ptr %37, align 8
  %39 = getelementptr inbounds nuw %struct.ForEachState, ptr %10, i32 0, i32 1
  %40 = load i32, ptr %39, align 8
  %41 = sext i32 %40 to i64
  %42 = getelementptr inbounds %union.ListCell, ptr %38, i64 %41
  store ptr %42, ptr %9, align 8
  br label %44

43:                                               ; preds = %26, %22
  store ptr null, ptr %9, align 8
  br label %44

44:                                               ; preds = %43, %34
  %45 = phi i32 [ 1, %34 ], [ 0, %43 ]
  %46 = icmp ne i32 %45, 0
  br i1 %46, label %48, label %47

47:                                               ; preds = %44
  store i32 2, ptr %11, align 4
  br label %74

48:                                               ; preds = %44
  %49 = load ptr, ptr %9, align 8
  %50 = load ptr, ptr %49, align 8
  store ptr %50, ptr %6, align 8
  %51 = load ptr, ptr %6, align 8
  %52 = getelementptr inbounds nuw %struct.AfterTriggersTableData, ptr %51, i32 0, i32 0
  %53 = load i32, ptr %52, align 8
  %54 = load i32, ptr %4, align 4
  %55 = icmp eq i32 %53, %54
  br i1 %55, label %56, label %69

56:                                               ; preds = %48
  %57 = load ptr, ptr %6, align 8
  %58 = getelementptr inbounds nuw %struct.AfterTriggersTableData, ptr %57, i32 0, i32 1
  %59 = load i32, ptr %58, align 4
  %60 = load i32, ptr %5, align 4
  %61 = icmp eq i32 %59, %60
  br i1 %61, label %62, label %69

62:                                               ; preds = %56
  %63 = load ptr, ptr %6, align 8
  %64 = getelementptr inbounds nuw %struct.AfterTriggersTableData, ptr %63, i32 0, i32 2
  %65 = load i8, ptr %64, align 8, !range !4, !noundef !5
  %66 = trunc i8 %65 to i1
  br i1 %66, label %69, label %67

67:                                               ; preds = %62
  %68 = load ptr, ptr %6, align 8
  store ptr %68, ptr %3, align 8
  store i32 1, ptr %11, align 4
  br label %74

69:                                               ; preds = %62, %56, %48
  br label %70

70:                                               ; preds = %69
  %71 = getelementptr inbounds nuw %struct.ForEachState, ptr %10, i32 0, i32 1
  %72 = load i32, ptr %71, align 8
  %73 = add i32 %72, 1
  store i32 %73, ptr %71, align 8
  br label %22, !llvm.loop !44

74:                                               ; preds = %67, %47
  call void @llvm.lifetime.end.p0(i64 16, ptr %10) #12
  %75 = load i32, ptr %11, align 4
  switch i32 %75, label %96 [
    i32 2, label %76
  ]

76:                                               ; preds = %74
  %77 = load ptr, ptr @CurTransactionContext, align 8
  %78 = call ptr @MemoryContextSwitchTo(ptr noundef %77)
  store ptr %78, ptr %8, align 8
  %79 = call ptr @palloc0(i64 noundef 80)
  store ptr %79, ptr %6, align 8
  %80 = load i32, ptr %4, align 4
  %81 = load ptr, ptr %6, align 8
  %82 = getelementptr inbounds nuw %struct.AfterTriggersTableData, ptr %81, i32 0, i32 0
  store i32 %80, ptr %82, align 8
  %83 = load i32, ptr %5, align 4
  %84 = load ptr, ptr %6, align 8
  %85 = getelementptr inbounds nuw %struct.AfterTriggersTableData, ptr %84, i32 0, i32 1
  store i32 %83, ptr %85, align 4
  %86 = load ptr, ptr %7, align 8
  %87 = getelementptr inbounds nuw %struct.AfterTriggersQueryData, ptr %86, i32 0, i32 2
  %88 = load ptr, ptr %87, align 8
  %89 = load ptr, ptr %6, align 8
  %90 = call ptr @lappend(ptr noundef %88, ptr noundef %89)
  %91 = load ptr, ptr %7, align 8
  %92 = getelementptr inbounds nuw %struct.AfterTriggersQueryData, ptr %91, i32 0, i32 2
  store ptr %90, ptr %92, align 8
  %93 = load ptr, ptr %8, align 8
  %94 = call ptr @MemoryContextSwitchTo(ptr noundef %93)
  %95 = load ptr, ptr %6, align 8
  store ptr %95, ptr %3, align 8
  store i32 1, ptr %11, align 4
  br label %96

96:                                               ; preds = %76, %74
  call void @llvm.lifetime.end.p0(i64 8, ptr %9) #12
  call void @llvm.lifetime.end.p0(i64 8, ptr %8) #12
  call void @llvm.lifetime.end.p0(i64 8, ptr %7) #12
  call void @llvm.lifetime.end.p0(i64 8, ptr %6) #12
  %97 = load ptr, ptr %3, align 8
  ret ptr %97
}

; Function Attrs: nounwind uwtable
define internal void @cancel_prior_stmt_triggers(i32 noundef %0, i32 noundef %1, i32 noundef %2) #0 {
  %4 = alloca i32, align 4
  %5 = alloca i32, align 4
  %6 = alloca i32, align 4
  %7 = alloca ptr, align 8
  %8 = alloca ptr, align 8
  %9 = alloca ptr, align 8
  %10 = alloca ptr, align 8
  %11 = alloca ptr, align 8
  %12 = alloca i32, align 4
  store i32 %0, ptr %4, align 4
  store i32 %1, ptr %5, align 4
  store i32 %2, ptr %6, align 4
  call void @llvm.lifetime.start.p0(i64 8, ptr %7) #12
  call void @llvm.lifetime.start.p0(i64 8, ptr %8) #12
  %13 = load ptr, ptr getelementptr inbounds nuw (%struct.AfterTriggersData, ptr @afterTriggers, i32 0, i32 4), align 8
  %14 = load i32, ptr getelementptr inbounds nuw (%struct.AfterTriggersData, ptr @afterTriggers, i32 0, i32 5), align 8
  %15 = sext i32 %14 to i64
  %16 = getelementptr inbounds %struct.AfterTriggersQueryData, ptr %13, i64 %15
  store ptr %16, ptr %8, align 8
  %17 = load i32, ptr %4, align 4
  %18 = load i32, ptr %5, align 4
  %19 = call ptr @GetAfterTriggersTableData(i32 noundef %17, i32 noundef %18)
  store ptr %19, ptr %7, align 8
  %20 = load ptr, ptr %7, align 8
  %21 = getelementptr inbounds nuw %struct.AfterTriggersTableData, ptr %20, i32 0, i32 4
  %22 = load i8, ptr %21, align 2, !range !4, !noundef !5
  %23 = trunc i8 %22 to i1
  br i1 %23, label %24, label %145

24:                                               ; preds = %3
  call void @llvm.lifetime.start.p0(i64 8, ptr %9) #12
  call void @llvm.lifetime.start.p0(i64 8, ptr %10) #12
  %25 = load ptr, ptr %7, align 8
  %26 = getelementptr inbounds nuw %struct.AfterTriggersTableData, ptr %25, i32 0, i32 5
  %27 = getelementptr inbounds nuw %struct.AfterTriggerEventList, ptr %26, i32 0, i32 1
  %28 = load ptr, ptr %27, align 8
  %29 = icmp ne ptr %28, null
  br i1 %29, label %30, label %39

30:                                               ; preds = %24
  %31 = load ptr, ptr %7, align 8
  %32 = getelementptr inbounds nuw %struct.AfterTriggersTableData, ptr %31, i32 0, i32 5
  %33 = getelementptr inbounds nuw %struct.AfterTriggerEventList, ptr %32, i32 0, i32 1
  %34 = load ptr, ptr %33, align 8
  store ptr %34, ptr %10, align 8
  %35 = load ptr, ptr %7, align 8
  %36 = getelementptr inbounds nuw %struct.AfterTriggersTableData, ptr %35, i32 0, i32 5
  %37 = getelementptr inbounds nuw %struct.AfterTriggerEventList, ptr %36, i32 0, i32 2
  %38 = load ptr, ptr %37, align 8
  store ptr %38, ptr %9, align 8
  br label %44

39:                                               ; preds = %24
  %40 = load ptr, ptr %8, align 8
  %41 = getelementptr inbounds nuw %struct.AfterTriggersQueryData, ptr %40, i32 0, i32 0
  %42 = getelementptr inbounds nuw %struct.AfterTriggerEventList, ptr %41, i32 0, i32 0
  %43 = load ptr, ptr %42, align 8
  store ptr %43, ptr %10, align 8
  store ptr null, ptr %9, align 8
  br label %44

44:                                               ; preds = %39, %30
  br label %45

45:                                               ; preds = %137, %44
  %46 = load ptr, ptr %10, align 8
  %47 = icmp ne ptr %46, null
  br i1 %47, label %48, label %141

48:                                               ; preds = %45
  %49 = load ptr, ptr %9, align 8
  %50 = icmp eq ptr %49, null
  br i1 %50, label %51, label %54

51:                                               ; preds = %48
  %52 = load ptr, ptr %10, align 8
  %53 = getelementptr inbounds nuw i8, ptr %52, i64 32
  store ptr %53, ptr %9, align 8
  br label %54

54:                                               ; preds = %51, %48
  br label %55

55:                                               ; preds = %133, %54
  %56 = load ptr, ptr %9, align 8
  %57 = load ptr, ptr %10, align 8
  %58 = getelementptr inbounds nuw %struct.AfterTriggerEventChunk, ptr %57, i32 0, i32 1
  %59 = load ptr, ptr %58, align 8
  %60 = icmp ult ptr %56, %59
  br i1 %60, label %61, label %136

61:                                               ; preds = %55
  call void @llvm.lifetime.start.p0(i64 8, ptr %11) #12
  %62 = load ptr, ptr %9, align 8
  %63 = load ptr, ptr %9, align 8
  %64 = getelementptr inbounds nuw %struct.AfterTriggerEventData, ptr %63, i32 0, i32 0
  %65 = load i32, ptr %64, align 4
  %66 = and i32 %65, 134217727
  %67 = zext i32 %66 to i64
  %68 = getelementptr inbounds nuw i8, ptr %62, i64 %67
  store ptr %68, ptr %11, align 8
  %69 = load ptr, ptr %11, align 8
  %70 = getelementptr inbounds nuw %struct.AfterTriggerSharedData, ptr %69, i32 0, i32 2
  %71 = load i32, ptr %70, align 8
  %72 = load i32, ptr %4, align 4
  %73 = icmp ne i32 %71, %72
  br i1 %73, label %74, label %75

74:                                               ; preds = %61
  store i32 8, ptr %12, align 4
  br label %106

75:                                               ; preds = %61
  %76 = load ptr, ptr %11, align 8
  %77 = getelementptr inbounds nuw %struct.AfterTriggerSharedData, ptr %76, i32 0, i32 0
  %78 = load i32, ptr %77, align 8
  %79 = and i32 %78, 3
  %80 = load i32, ptr %6, align 4
  %81 = icmp ne i32 %79, %80
  br i1 %81, label %82, label %83

82:                                               ; preds = %75
  store i32 8, ptr %12, align 4
  br label %106

83:                                               ; preds = %75
  %84 = load ptr, ptr %11, align 8
  %85 = getelementptr inbounds nuw %struct.AfterTriggerSharedData, ptr %84, i32 0, i32 0
  %86 = load i32, ptr %85, align 8
  %87 = and i32 %86, 4
  %88 = icmp ne i32 %87, 0
  br i1 %88, label %89, label %90

89:                                               ; preds = %83
  store i32 8, ptr %12, align 4
  br label %106

90:                                               ; preds = %83
  %91 = load ptr, ptr %11, align 8
  %92 = getelementptr inbounds nuw %struct.AfterTriggerSharedData, ptr %91, i32 0, i32 0
  %93 = load i32, ptr %92, align 8
  %94 = and i32 %93, 24
  %95 = icmp eq i32 %94, 0
  br i1 %95, label %97, label %96

96:                                               ; preds = %90
  store i32 8, ptr %12, align 4
  br label %106

97:                                               ; preds = %90
  %98 = load ptr, ptr %9, align 8
  %99 = getelementptr inbounds nuw %struct.AfterTriggerEventData, ptr %98, i32 0, i32 0
  %100 = load i32, ptr %99, align 4
  %101 = and i32 %100, -1073741825
  store i32 %101, ptr %99, align 4
  %102 = load ptr, ptr %9, align 8
  %103 = getelementptr inbounds nuw %struct.AfterTriggerEventData, ptr %102, i32 0, i32 0
  %104 = load i32, ptr %103, align 4
  %105 = or i32 %104, -2147483648
  store i32 %105, ptr %103, align 4
  store i32 0, ptr %12, align 4
  br label %106

106:                                              ; preds = %96, %89, %82, %74, %97
  call void @llvm.lifetime.end.p0(i64 8, ptr %11) #12
  %107 = load i32, ptr %12, align 4
  switch i32 %107, label %142 [
    i32 0, label %108
  ]

108:                                              ; preds = %106
  br label %109

109:                                              ; preds = %108
  %110 = load ptr, ptr %9, align 8
  %111 = load ptr, ptr %9, align 8
  %112 = getelementptr inbounds nuw %struct.AfterTriggerEventData, ptr %111, i32 0, i32 0
  %113 = load i32, ptr %112, align 4
  %114 = and i32 %113, 939524096
  %115 = icmp eq i32 %114, 134217728
  br i1 %115, label %116, label %117

116:                                              ; preds = %109
  br label %133

117:                                              ; preds = %109
  %118 = load ptr, ptr %9, align 8
  %119 = getelementptr inbounds nuw %struct.AfterTriggerEventData, ptr %118, i32 0, i32 0
  %120 = load i32, ptr %119, align 4
  %121 = and i32 %120, 939524096
  %122 = icmp eq i32 %121, 805306368
  br i1 %122, label %123, label %124

123:                                              ; preds = %117
  br label %131

124:                                              ; preds = %117
  %125 = load ptr, ptr %9, align 8
  %126 = getelementptr inbounds nuw %struct.AfterTriggerEventData, ptr %125, i32 0, i32 0
  %127 = load i32, ptr %126, align 4
  %128 = and i32 %127, 939524096
  %129 = icmp eq i32 %128, 268435456
  %130 = select i1 %129, i64 12, i64 4
  br label %131

131:                                              ; preds = %124, %123
  %132 = phi i64 [ 16, %123 ], [ %130, %124 ]
  br label %133

133:                                              ; preds = %131, %116
  %134 = phi i64 [ 24, %116 ], [ %132, %131 ]
  %135 = getelementptr inbounds nuw i8, ptr %110, i64 %134
  store ptr %135, ptr %9, align 8
  br label %55, !llvm.loop !77

136:                                              ; preds = %55
  store ptr null, ptr %9, align 8
  br label %137

137:                                              ; preds = %136
  %138 = load ptr, ptr %10, align 8
  %139 = getelementptr inbounds nuw %struct.AfterTriggerEventChunk, ptr %138, i32 0, i32 0
  %140 = load ptr, ptr %139, align 8
  store ptr %140, ptr %10, align 8
  br label %45, !llvm.loop !78

141:                                              ; preds = %45
  store i32 0, ptr %12, align 4
  br label %142

142:                                              ; preds = %141, %106
  call void @llvm.lifetime.end.p0(i64 8, ptr %10) #12
  call void @llvm.lifetime.end.p0(i64 8, ptr %9) #12
  %143 = load i32, ptr %12, align 4
  switch i32 %143, label %153 [
    i32 0, label %144
    i32 8, label %146
  ]

144:                                              ; preds = %142
  br label %145

145:                                              ; preds = %144, %3
  br label %146

146:                                              ; preds = %145, %142
  %147 = load ptr, ptr %7, align 8
  %148 = getelementptr inbounds nuw %struct.AfterTriggersTableData, ptr %147, i32 0, i32 4
  store i8 1, ptr %148, align 2
  %149 = load ptr, ptr %7, align 8
  %150 = getelementptr inbounds nuw %struct.AfterTriggersTableData, ptr %149, i32 0, i32 5
  %151 = load ptr, ptr %8, align 8
  %152 = getelementptr inbounds nuw %struct.AfterTriggersQueryData, ptr %151, i32 0, i32 0
  call void @llvm.memcpy.p0.p0.i64(ptr align 8 %150, ptr align 8 %152, i64 24, i1 false)
  call void @llvm.lifetime.end.p0(i64 8, ptr %8) #12
  call void @llvm.lifetime.end.p0(i64 8, ptr %7) #12
  ret void

153:                                              ; preds = %142
  unreachable
}