; Function Attrs: nounwind uwtable
define internal fastcc void @cancel_prior_stmt_triggers(i32 noundef %0, i32 noundef range(i32 2, 5) %1, i32 noundef range(i32 0, 3) %2) unnamed_addr #0 {
  %4 = load ptr, ptr getelementptr inbounds nuw (i8, ptr @afterTriggers, i64 48), align 8
  %5 = load i32, ptr getelementptr inbounds nuw (i8, ptr @afterTriggers, i64 56), align 8
  %6 = sext i32 %5 to i64
  %7 = getelementptr inbounds %struct.AfterTriggersQueryData, ptr %4, i64 %6
  %8 = getelementptr inbounds %struct.AfterTriggersQueryData, ptr %4, i64 %6, i32 2
  %9 = load ptr, ptr %8, align 8
  %.not.i = icmp eq ptr %9, null
  br i1 %.not.i, label %._crit_edge.i, label %.lr.ph.i

.lr.ph.i:                                         ; preds = %3
  %10 = getelementptr inbounds nuw i8, ptr %9, i64 4
  %11 = load i32, ptr %10, align 4
  %12 = icmp sgt i32 %11, 0
  br i1 %12, label %.lr.ph35.i, label %._crit_edge.i

.lr.ph35.i:                                       ; preds = %.lr.ph.i
  %13 = getelementptr inbounds nuw i8, ptr %9, i64 16
  %14 = load ptr, ptr %13, align 8
  %wide.trip.count.i = zext nneg i32 %11 to i64
  br label %15

15:                                               ; preds = %28, %.lr.ph35.i
  %indvars.iv.i = phi i64 [ 0, %.lr.ph35.i ], [ %indvars.iv.next.i, %28 ]
  %16 = getelementptr inbounds nuw %union.ListCell, ptr %14, i64 %indvars.iv.i
  %17 = load ptr, ptr %16, align 8
  %18 = load i32, ptr %17, align 8
  %19 = icmp eq i32 %18, %0
  br i1 %19, label %20, label %28

20:                                               ; preds = %15
  %21 = getelementptr inbounds nuw i8, ptr %17, i64 4
  %22 = load i32, ptr %21, align 4
  %23 = icmp eq i32 %22, %1
  br i1 %23, label %24, label %28

24:                                               ; preds = %20
  %25 = getelementptr inbounds nuw i8, ptr %17, i64 8
  %26 = load i8, ptr %25, align 8, !range !4, !noundef !5
  %27 = trunc nuw i8 %26 to i1
  br i1 %27, label %28, label %GetAfterTriggersTableData.exit

28:                                               ; preds = %24, %20, %15
  %indvars.iv.next.i = add nuw nsw i64 %indvars.iv.i, 1
  %exitcond.not.i = icmp eq i64 %indvars.iv.next.i, %wide.trip.count.i
  br i1 %exitcond.not.i, label %._crit_edge.i, label %15

._crit_edge.i:                                    ; preds = %28, %.lr.ph.i, %3
  %29 = load ptr, ptr @CurTransactionContext, align 8
  %30 = load ptr, ptr @CurrentMemoryContext, align 8
  store ptr %29, ptr @CurrentMemoryContext, align 8
  %31 = tail call ptr @palloc0(i64 noundef 80) #16
  store i32 %0, ptr %31, align 8
  %32 = getelementptr inbounds nuw i8, ptr %31, i64 4
  store i32 %1, ptr %32, align 4
  %33 = load ptr, ptr %8, align 8
  %34 = tail call ptr @lappend(ptr noundef %33, ptr noundef nonnull %31) #16
  store ptr %34, ptr %8, align 8
  store ptr %30, ptr @CurrentMemoryContext, align 8
  br label %GetAfterTriggersTableData.exit

GetAfterTriggersTableData.exit:                   ; preds = %24, %._crit_edge.i
  %.1.i = phi ptr [ %31, %._crit_edge.i ], [ %17, %24 ]
  %35 = getelementptr inbounds nuw i8, ptr %.1.i, i64 10
  %36 = load i8, ptr %35, align 2, !range !4, !noundef !5
  %37 = trunc nuw i8 %36 to i1
  br i1 %37, label %38, label %.loopexit

38:                                               ; preds = %GetAfterTriggersTableData.exit
  %39 = getelementptr inbounds nuw i8, ptr %.1.i, i64 24
  %40 = load ptr, ptr %39, align 8
  %.not = icmp eq ptr %40, null
  br i1 %.not, label %43, label %.thread

.thread:                                          ; preds = %38
  %41 = getelementptr inbounds nuw i8, ptr %.1.i, i64 32
  %42 = load ptr, ptr %41, align 8
  br label %.lr.ph48.preheader

43:                                               ; preds = %38
  %44 = load ptr, ptr %7, align 8
  %.not3544 = icmp eq ptr %44, null
  br i1 %.not3544, label %.loopexit, label %.lr.ph48.preheader

.lr.ph48.preheader:                               ; preds = %.thread, %43
  %.146.ph = phi ptr [ null, %43 ], [ %42, %.thread ]
  %.13245.ph = phi ptr [ %44, %43 ], [ %40, %.thread ]
  br label %.lr.ph48

.lr.ph48:                                         ; preds = %.lr.ph48.preheader, %._crit_edge
  %.146 = phi ptr [ null, %._crit_edge ], [ %.146.ph, %.lr.ph48.preheader ]
  %.13245 = phi ptr [ %72, %._crit_edge ], [ %.13245.ph, %.lr.ph48.preheader ]
  %45 = icmp eq ptr %.146, null
  %46 = getelementptr inbounds nuw i8, ptr %.13245, i64 32
  %spec.select = select i1 %45, ptr %46, ptr %.146
  %47 = getelementptr inbounds nuw i8, ptr %.13245, i64 8
  %48 = load ptr, ptr %47, align 8
  %49 = icmp ult ptr %spec.select, %48
  br i1 %49, label %.lr.ph, label %._crit_edge

.lr.ph:                                           ; preds = %.lr.ph48, %67
  %.343 = phi ptr [ %69, %67 ], [ %spec.select, %.lr.ph48 ]
  %50 = load i32, ptr %.343, align 4
  %51 = and i32 %50, 134217727
  %52 = zext nneg i32 %51 to i64
  %53 = getelementptr inbounds nuw i8, ptr %.343, i64 %52
  %54 = getelementptr inbounds nuw i8, ptr %53, i64 8
  %55 = load i32, ptr %54, align 8
  %.not36 = icmp eq i32 %55, %0
  br i1 %.not36, label %56, label %.loopexit

56:                                               ; preds = %.lr.ph
  %57 = load i32, ptr %53, align 8
  %58 = and i32 %57, 3
  %.not37 = icmp eq i32 %58, %2
  %59 = and i32 %57, 28
  %60 = icmp eq i32 %59, 0
  %or.cond40 = and i1 %.not37, %60
  br i1 %or.cond40, label %.critedge, label %.loopexit

.critedge:                                        ; preds = %56
  %61 = and i32 %50, 1073741823
  %62 = or disjoint i32 %61, -2147483648
  store i32 %62, ptr %.343, align 4
  %63 = and i32 %50, 939524096
  switch i32 %63, label %64 [
    i32 134217728, label %67
    i32 805306368, label %.fold.split
  ]

64:                                               ; preds = %.critedge
  %65 = icmp eq i32 %63, 268435456
  %66 = select i1 %65, i64 12, i64 4
  br label %67

.fold.split:                                      ; preds = %.critedge
  br label %67

67:                                               ; preds = %.critedge, %.fold.split, %64
  %68 = phi i64 [ 24, %.critedge ], [ %66, %64 ], [ 16, %.fold.split ]
  %69 = getelementptr inbounds nuw i8, ptr %.343, i64 %68
  %70 = load ptr, ptr %47, align 8
  %71 = icmp ult ptr %69, %70
  br i1 %71, label %.lr.ph, label %._crit_edge, !llvm.loop !65

._crit_edge:                                      ; preds = %67, %.lr.ph48
  %72 = load ptr, ptr %.13245, align 8
  %.not35 = icmp eq ptr %72, null
  br i1 %.not35, label %.loopexit, label %.lr.ph48, !llvm.loop !66

.loopexit:                                        ; preds = %._crit_edge, %56, %.lr.ph, %43, %GetAfterTriggersTableData.exit
  store i8 1, ptr %35, align 2
  %73 = getelementptr inbounds nuw i8, ptr %.1.i, i64 16
  tail call void @llvm.memcpy.p0.p0.i64(ptr noundef nonnull align 8 dereferenceable(24) %73, ptr noundef nonnull align 8 dereferenceable(24) %7, i64 24, i1 false)
  ret void
}